target datalayout = "e-m:e-p270:32:32-p271:32:32-p272:64:64-i64:64-i128:128-f80:128-n8:16:32:64-S128"
target triple = "x86_64-pc-linux-gnu"

%"struct.std::_Rb_tree_header" = type { %"struct.std::_Rb_tree_node_base", i64 }
%"struct.std::_Rb_tree_node_base" = type { i32, ptr, ptr, ptr }
%"class.std::__cxx11::basic_string" = type { %"struct.std::__cxx11::basic_string<char>::_Alloc_hider", i64, %union.anon }
%"struct.std::__cxx11::basic_string<char>::_Alloc_hider" = type { ptr }
%union.anon = type { i64, [8 x i8] }
%"struct.Yosys::AST::AstNode" = type <{ i32, i32, %"class.std::vector", %"class.std::map", %"class.std::__cxx11::basic_string", %"class.std::vector.6", i8, i8, i8, i8, i8, i8, i8, i8, i8, i8, i8, i8, i8, [3 x i8], i32, i32, i32, i32, double, i8, [7 x i8], %"class.std::vector.11", i32, [4 x i8], ptr, i8, i8, [6 x i8], %"class.std::__cxx11::basic_string", %"struct.Yosys::AST::AstSrcLocType", i8, i8, i8, i8, [4 x i8] }>
%"class.std::vector" = type { %"struct.std::_Vector_base" }
%"struct.std::_Vector_base" = type { %"struct.std::_Vector_base<Yosys::AST::AstNode *, std::allocator<Yosys::AST::AstNode *>>::_Vector_impl" }
%"struct.std::_Vector_base<Yosys::AST::AstNode *, std::allocator<Yosys::AST::AstNode *>>::_Vector_impl" = type { %"struct.std::_Vector_base<Yosys::AST::AstNode *, std::allocator<Yosys::AST::AstNode *>>::_Vector_impl_data" }
%"struct.std::_Vector_base<Yosys::AST::AstNode *, std::allocator<Yosys::AST::AstNode *>>::_Vector_impl_data" = type { ptr, ptr, ptr }
%"class.std::map" = type { %"class.std::_Rb_tree" }
%"class.std::_Rb_tree" = type { %"struct.std::_Rb_tree<Yosys::RTLIL::IdString, std::pair<const Yosys::RTLIL::IdString, Yosys::AST::AstNode *>, std::_Select1st<std::pair<const Yosys::RTLIL::IdString, Yosys::AST::AstNode *>>, std::less<Yosys::RTLIL::IdString>>::_Rb_tree_impl" }
%"struct.std::_Rb_tree<Yosys::RTLIL::IdString, std::pair<const Yosys::RTLIL::IdString, Yosys::AST::AstNode *>, std::_Select1st<std::pair<const Yosys::RTLIL::IdString, Yosys::AST::AstNode *>>, std::less<Yosys::RTLIL::IdString>>::_Rb_tree_impl" = type { [8 x i8], %"struct.std::_Rb_tree_header" }
%"class.std::vector.6" = type { %"struct.std::_Vector_base.7" }
%"struct.std::_Vector_base.7" = type { %"struct.std::_Vector_base<Yosys::RTLIL::State, std::allocator<Yosys::RTLIL::State>>::_Vector_impl" }
%"struct.std::_Vector_base<Yosys::RTLIL::State, std::allocator<Yosys::RTLIL::State>>::_Vector_impl" = type { %"struct.std::_Vector_base<Yosys::RTLIL::State, std::allocator<Yosys::RTLIL::State>>::_Vector_impl_data" }
%"struct.std::_Vector_base<Yosys::RTLIL::State, std::allocator<Yosys::RTLIL::State>>::_Vector_impl_data" = type { ptr, ptr, ptr }
%"class.std::vector.11" = type { %"struct.std::_Vector_base.12" }
%"struct.std::_Vector_base.12" = type { %"struct.std::_Vector_base<Yosys::AST::AstNode::dimension_t, std::allocator<Yosys::AST::AstNode::dimension_t>>::_Vector_impl" }
%"struct.std::_Vector_base<Yosys::AST::AstNode::dimension_t, std::allocator<Yosys::AST::AstNode::dimension_t>>::_Vector_impl" = type { %"struct.std::_Vector_base<Yosys::AST::AstNode::dimension_t, std::allocator<Yosys::AST::AstNode::dimension_t>>::_Vector_impl_data" }
%"struct.std::_Vector_base<Yosys::AST::AstNode::dimension_t, std::allocator<Yosys::AST::AstNode::dimension_t>>::_Vector_impl_data" = type { ptr, ptr, ptr }
%"struct.Yosys::AST::AstSrcLocType" = type { i32, i32, i32, i32 }

; Function Attrs: mustprogress uwtable
define void @_ZN5Yosys3AST7AstNode17set_in_param_flagEbb(ptr noundef nonnull align 8 dereferenceable(284) %0, i1 noundef zeroext %1, i1 noundef zeroext %2) #4 align 2 {
  %4 = alloca ptr, align 8
  %5 = alloca i8, align 1
  %6 = alloca i8, align 1
  store ptr %0, ptr %4, align 8, !tbaa !6
  %7 = zext i1 %1 to i8
  store i8 %7, ptr %5, align 1, !tbaa !11
  %8 = zext i1 %2 to i8
  store i8 %8, ptr %6, align 1, !tbaa !11
  %9 = load ptr, ptr %4, align 8
  %10 = load i8, ptr %5, align 1, !tbaa !11, !range !13, !noundef !14
  %11 = trunc i8 %10 to i1
  %12 = zext i1 %11 to i32
  %13 = getelementptr inbounds nuw %"struct.Yosys::AST::AstNode", ptr %9, i32 0, i32 39
  %14 = load i8, ptr %13, align 1, !tbaa !49, !range !13, !noundef !14
  %15 = trunc i8 %14 to i1
  %16 = zext i1 %15 to i32
  %17 = icmp ne i32 %12, %16
  br i1 %17, label %18, label %27

18:                                               ; preds = %3
  %19 = load i8, ptr %5, align 1, !tbaa !11, !range !13, !noundef !14
  %20 = trunc i8 %19 to i1
  %21 = getelementptr inbounds nuw %"struct.Yosys::AST::AstNode", ptr %9, i32 0, i32 39
  %22 = zext i1 %20 to i8
  store i8 %22, ptr %21, align 1, !tbaa !49
  %23 = load i8, ptr %6, align 1, !tbaa !11, !range !13, !noundef !14
  %24 = trunc i8 %23 to i1
  br i1 %24, label %26, label %25

25:                                               ; preds = %18
  call void @_ZN5Yosys3AST7AstNode21fixup_hierarchy_flagsEb(ptr noundef nonnull align 8 dereferenceable(284) %9, i1 noundef zeroext false)
  br label %26

26:                                               ; preds = %25, %18
  br label %27

27:                                               ; preds = %26, %3
  ret void
}