; Function Attrs: mustprogress uwtable
define void @_ZN5Yosys3AST7AstNode17set_in_param_flagEbb(ptr noundef nonnull align 8 captures(address) dereferenceable(284) %0, i1 noundef zeroext %1, i1 noundef zeroext %2) local_unnamed_addr #3 align 2 {
  %4 = getelementptr inbounds nuw i8, ptr %0, i64 283
  %5 = load i8, ptr %4, align 1, !tbaa !47, !range !45, !noundef !46
  %6 = zext i1 %1 to i8
  %.not = icmp eq i8 %5, %6
  br i1 %.not, label %9, label %7

7:                                                ; preds = %3
  store i8 %6, ptr %4, align 1, !tbaa !47
  br i1 %2, label %9, label %8

8:                                                ; preds = %7
  tail call void @_ZN5Yosys3AST7AstNode21fixup_hierarchy_flagsEb(ptr noundef nonnull align 8 dereferenceable(284) %0, i1 noundef zeroext false)
  br label %9

9:                                                ; preds = %7, %8, %3
  ret void
}